target datalayout = "e-m:e-p270:32:32-p271:32:32-p272:64:64-i64:64-i128:128-f80:128-n8:16:32:64-S128"
target triple = "x86_64-pc-linux-gnu"

%"class.cv::Mat" = type { i32, i32, i32, i32, ptr, ptr, ptr, ptr, ptr, ptr, %"struct.cv::MatSize", %"struct.cv::MatStep" }
%"struct.cv::MatSize" = type { ptr }
%"struct.cv::MatStep" = type { ptr, [2 x i64] }

; Function Attrs: inlinehint mustprogress nounwind uwtable
define linkonce_odr hidden noundef nonnull align 4 dereferenceable(4) ptr @_ZN2cv3Mat2atIfEERT_ii(ptr noundef nonnull align 8 dereferenceable(96) %0, i32 noundef %1, i32 noundef %2) #4 comdat align 2 {
  %4 = alloca ptr, align 8
  %5 = alloca i32, align 4
  %6 = alloca i32, align 4
  store ptr %0, ptr %4, align 8, !tbaa !116
  store i32 %1, ptr %5, align 4, !tbaa !9
  store i32 %2, ptr %6, align 4, !tbaa !9
  %7 = load ptr, ptr %4, align 8
  %8 = getelementptr inbounds nuw %"class.cv::Mat", ptr %7, i32 0, i32 4
  %9 = load ptr, ptr %8, align 8, !tbaa !154
  %10 = getelementptr inbounds nuw %"class.cv::Mat", ptr %7, i32 0, i32 11
  %11 = getelementptr inbounds nuw %"struct.cv::MatStep", ptr %10, i32 0, i32 0
  %12 = load ptr, ptr %11, align 8, !tbaa !155
  %13 = getelementptr inbounds i64, ptr %12, i64 0
  %14 = load i64, ptr %13, align 8, !tbaa !156
  %15 = load i32, ptr %5, align 4, !tbaa !9
  %16 = sext i32 %15 to i64
  %17 = mul i64 %14, %16
  %18 = getelementptr inbounds nuw i8, ptr %9, i64 %17
  %19 = load i32, ptr %6, align 4, !tbaa !9
  %20 = sext i32 %19 to i64
  %21 = getelementptr inbounds float, ptr %18, i64 %20
  ret ptr %21
}

; Function Attrs: mustprogress uwtable
define hidden void @_ZN11opencv_test10update_mapERKN2cv3MatERS1_S4_ib(ptr noundef nonnull align 8 dereferenceable(96) %0, ptr noundef nonnull align 8 dereferenceable(96) %1, ptr noundef nonnull align 8 dereferenceable(96) %2, i32 noundef %3, i1 noundef zeroext %4) #6 {
  %6 = alloca ptr, align 8
  %7 = alloca ptr, align 8
  %8 = alloca ptr, align 8
  %9 = alloca i32, align 4
  %10 = alloca i8, align 1
  %11 = alloca i32, align 4
  %12 = alloca i32, align 4
  %13 = alloca i32, align 4
  store ptr %0, ptr %6, align 8, !tbaa !116
  store ptr %1, ptr %7, align 8, !tbaa !116
  store ptr %2, ptr %8, align 8, !tbaa !116
  store i32 %3, ptr %9, align 4, !tbaa !9
  %14 = zext i1 %4 to i8
  store i8 %14, ptr %10, align 1, !tbaa !16
  call void @llvm.lifetime.start.p0(i64 4, ptr %11) #3
  store i32 0, ptr %11, align 4, !tbaa !9
  br label %15

15:                                               ; preds = %185, %5
  %16 = load i32, ptr %11, align 4, !tbaa !9
  %17 = load ptr, ptr %6, align 8, !tbaa !116
  %18 = getelementptr inbounds nuw %"class.cv::Mat", ptr %17, i32 0, i32 2
  %19 = load i32, ptr %18, align 8, !tbaa !87
  %20 = icmp slt i32 %16, %19
  br i1 %20, label %22, label %21

21:                                               ; preds = %15
  store i32 2, ptr %12, align 4
  call void @llvm.lifetime.end.p0(i64 4, ptr %11) #3
  br label %188

22:                                               ; preds = %15
  call void @llvm.lifetime.start.p0(i64 4, ptr %13) #3
  store i32 0, ptr %13, align 4, !tbaa !9
  br label %23

23:                                               ; preds = %181, %22
  %24 = load i32, ptr %13, align 4, !tbaa !9
  %25 = load ptr, ptr %6, align 8, !tbaa !116
  %26 = getelementptr inbounds nuw %"class.cv::Mat", ptr %25, i32 0, i32 3
  %27 = load i32, ptr %26, align 4, !tbaa !80
  %28 = icmp slt i32 %24, %27
  br i1 %28, label %30, label %29

29:                                               ; preds = %23
  store i32 5, ptr %12, align 4
  call void @llvm.lifetime.end.p0(i64 4, ptr %13) #3
  br label %184

30:                                               ; preds = %23
  %31 = load i32, ptr %9, align 4, !tbaa !9
  switch i32 %31, label %160 [
    i32 0, label %32
    i32 1, label %105
    i32 2, label %122
    i32 3, label %139
  ]

32:                                               ; preds = %30
  %33 = load i32, ptr %13, align 4, !tbaa !9
  %34 = sitofp i32 %33 to double
  %35 = load ptr, ptr %6, align 8, !tbaa !116
  %36 = getelementptr inbounds nuw %"class.cv::Mat", ptr %35, i32 0, i32 3
  %37 = load i32, ptr %36, align 4, !tbaa !80
  %38 = sitofp i32 %37 to double
  %39 = fmul double %38, 2.500000e-01
  %40 = fcmp ogt double %34, %39
  br i1 %40, label %41, label %95

41:                                               ; preds = %32
  %42 = load i32, ptr %13, align 4, !tbaa !9
  %43 = sitofp i32 %42 to double
  %44 = load ptr, ptr %6, align 8, !tbaa !116
  %45 = getelementptr inbounds nuw %"class.cv::Mat", ptr %44, i32 0, i32 3
  %46 = load i32, ptr %45, align 4, !tbaa !80
  %47 = sitofp i32 %46 to double
  %48 = fmul double %47, 7.500000e-01
  %49 = fcmp olt double %43, %48
  br i1 %49, label %50, label %95

50:                                               ; preds = %41
  %51 = load i32, ptr %11, align 4, !tbaa !9
  %52 = sitofp i32 %51 to double
  %53 = load ptr, ptr %6, align 8, !tbaa !116
  %54 = getelementptr inbounds nuw %"class.cv::Mat", ptr %53, i32 0, i32 2
  %55 = load i32, ptr %54, align 8, !tbaa !87
  %56 = sitofp i32 %55 to double
  %57 = fmul double %56, 2.500000e-01
  %58 = fcmp ogt double %52, %57
  br i1 %58, label %59, label %95

59:                                               ; preds = %50
  %60 = load i32, ptr %11, align 4, !tbaa !9
  %61 = sitofp i32 %60 to double
  %62 = load ptr, ptr %6, align 8, !tbaa !116
  %63 = getelementptr inbounds nuw %"class.cv::Mat", ptr %62, i32 0, i32 2
  %64 = load i32, ptr %63, align 8, !tbaa !87
  %65 = sitofp i32 %64 to double
  %66 = fmul double %65, 7.500000e-01
  %67 = fcmp olt double %61, %66
  br i1 %67, label %68, label %95

68:                                               ; preds = %59
  %69 = load i32, ptr %13, align 4, !tbaa !9
  %70 = sitofp i32 %69 to float
  %71 = load ptr, ptr %6, align 8, !tbaa !116
  %72 = getelementptr inbounds nuw %"class.cv::Mat", ptr %71, i32 0, i32 3
  %73 = load i32, ptr %72, align 4, !tbaa !80
  %74 = sitofp i32 %73 to float
  %75 = fneg float %74
  %76 = call float @llvm.fmuladd.f32(float %75, float 2.500000e-01, float %70)
  %77 = call float @llvm.fmuladd.f32(float 2.000000e+00, float %76, float 5.000000e-01)
  %78 = load ptr, ptr %7, align 8, !tbaa !116
  %79 = load i32, ptr %11, align 4, !tbaa !9
  %80 = load i32, ptr %13, align 4, !tbaa !9
  %81 = call noundef nonnull align 4 dereferenceable(4) ptr @_ZN2cv3Mat2atIfEERT_ii(ptr noundef nonnull align 8 dereferenceable(96) %78, i32 noundef %79, i32 noundef %80)
  store float %77, ptr %81, align 4, !tbaa !107
  %82 = load i32, ptr %11, align 4, !tbaa !9
  %83 = sitofp i32 %82 to float
  %84 = load ptr, ptr %6, align 8, !tbaa !116
  %85 = getelementptr inbounds nuw %"class.cv::Mat", ptr %84, i32 0, i32 2
  %86 = load i32, ptr %85, align 8, !tbaa !87
  %87 = sitofp i32 %86 to float
  %88 = fneg float %87
  %89 = call float @llvm.fmuladd.f32(float %88, float 2.500000e-01, float %83)
  %90 = call float @llvm.fmuladd.f32(float 2.000000e+00, float %89, float 5.000000e-01)
  %91 = load ptr, ptr %8, align 8, !tbaa !116
  %92 = load i32, ptr %11, align 4, !tbaa !9
  %93 = load i32, ptr %13, align 4, !tbaa !9
  %94 = call noundef nonnull align 4 dereferenceable(4) ptr @_ZN2cv3Mat2atIfEERT_ii(ptr noundef nonnull align 8 dereferenceable(96) %91, i32 noundef %92, i32 noundef %93)
  store float %90, ptr %94, align 4, !tbaa !107
  br label %104

95:                                               ; preds = %59, %50, %41, %32
  %96 = load ptr, ptr %7, align 8, !tbaa !116
  %97 = load i32, ptr %11, align 4, !tbaa !9
  %98 = load i32, ptr %13, align 4, !tbaa !9
  %99 = call noundef nonnull align 4 dereferenceable(4) ptr @_ZN2cv3Mat2atIfEERT_ii(ptr noundef nonnull align 8 dereferenceable(96) %96, i32 noundef %97, i32 noundef %98)
  store float 0.000000e+00, ptr %99, align 4, !tbaa !107
  %100 = load ptr, ptr %8, align 8, !tbaa !116
  %101 = load i32, ptr %11, align 4, !tbaa !9
  %102 = load i32, ptr %13, align 4, !tbaa !9
  %103 = call noundef nonnull align 4 dereferenceable(4) ptr @_ZN2cv3Mat2atIfEERT_ii(ptr noundef nonnull align 8 dereferenceable(96) %100, i32 noundef %101, i32 noundef %102)
  store float 0.000000e+00, ptr %103, align 4, !tbaa !107
  br label %104

104:                                              ; preds = %95, %68
  br label %160

105:                                              ; preds = %30
  %106 = load i32, ptr %13, align 4, !tbaa !9
  %107 = sitofp i32 %106 to float
  %108 = load ptr, ptr %7, align 8, !tbaa !116
  %109 = load i32, ptr %11, align 4, !tbaa !9
  %110 = load i32, ptr %13, align 4, !tbaa !9
  %111 = call noundef nonnull align 4 dereferenceable(4) ptr @_ZN2cv3Mat2atIfEERT_ii(ptr noundef nonnull align 8 dereferenceable(96) %108, i32 noundef %109, i32 noundef %110)
  store float %107, ptr %111, align 4, !tbaa !107
  %112 = load ptr, ptr %6, align 8, !tbaa !116
  %113 = getelementptr inbounds nuw %"class.cv::Mat", ptr %112, i32 0, i32 2
  %114 = load i32, ptr %113, align 8, !tbaa !87
  %115 = load i32, ptr %11, align 4, !tbaa !9
  %116 = sub nsw i32 %114, %115
  %117 = sitofp i32 %116 to float
  %118 = load ptr, ptr %8, align 8, !tbaa !116
  %119 = load i32, ptr %11, align 4, !tbaa !9
  %120 = load i32, ptr %13, align 4, !tbaa !9
  %121 = call noundef nonnull align 4 dereferenceable(4) ptr @_ZN2cv3Mat2atIfEERT_ii(ptr noundef nonnull align 8 dereferenceable(96) %118, i32 noundef %119, i32 noundef %120)
  store float %117, ptr %121, align 4, !tbaa !107
  br label %160

122:                                              ; preds = %30
  %123 = load ptr, ptr %6, align 8, !tbaa !116
  %124 = getelementptr inbounds nuw %"class.cv::Mat", ptr %123, i32 0, i32 3
  %125 = load i32, ptr %124, align 4, !tbaa !80
  %126 = load i32, ptr %13, align 4, !tbaa !9
  %127 = sub nsw i32 %125, %126
  %128 = sitofp i32 %127 to float
  %129 = load ptr, ptr %7, align 8, !tbaa !116
  %130 = load i32, ptr %11, align 4, !tbaa !9
  %131 = load i32, ptr %13, align 4, !tbaa !9
  %132 = call noundef nonnull align 4 dereferenceable(4) ptr @_ZN2cv3Mat2atIfEERT_ii(ptr noundef nonnull align 8 dereferenceable(96) %129, i32 noundef %130, i32 noundef %131)
  store float %128, ptr %132, align 4, !tbaa !107
  %133 = load i32, ptr %11, align 4, !tbaa !9
  %134 = sitofp i32 %133 to float
  %135 = load ptr, ptr %8, align 8, !tbaa !116
  %136 = load i32, ptr %11, align 4, !tbaa !9
  %137 = load i32, ptr %13, align 4, !tbaa !9
  %138 = call noundef nonnull align 4 dereferenceable(4) ptr @_ZN2cv3Mat2atIfEERT_ii(ptr noundef nonnull align 8 dereferenceable(96) %135, i32 noundef %136, i32 noundef %137)
  store float %134, ptr %138, align 4, !tbaa !107
  br label %160

139:                                              ; preds = %30
  %140 = load ptr, ptr %6, align 8, !tbaa !116
  %141 = getelementptr inbounds nuw %"class.cv::Mat", ptr %140, i32 0, i32 3
  %142 = load i32, ptr %141, align 4, !tbaa !80
  %143 = load i32, ptr %13, align 4, !tbaa !9
  %144 = sub nsw i32 %142, %143
  %145 = sitofp i32 %144 to float
  %146 = load ptr, ptr %7, align 8, !tbaa !116
  %147 = load i32, ptr %11, align 4, !tbaa !9
  %148 = load i32, ptr %13, align 4, !tbaa !9
  %149 = call noundef nonnull align 4 dereferenceable(4) ptr @_ZN2cv3Mat2atIfEERT_ii(ptr noundef nonnull align 8 dereferenceable(96) %146, i32 noundef %147, i32 noundef %148)
  store float %145, ptr %149, align 4, !tbaa !107
  %150 = load ptr, ptr %6, align 8, !tbaa !116
  %151 = getelementptr inbounds nuw %"class.cv::Mat", ptr %150, i32 0, i32 2
  %152 = load i32, ptr %151, align 8, !tbaa !87
  %153 = load i32, ptr %11, align 4, !tbaa !9
  %154 = sub nsw i32 %152, %153
  %155 = sitofp i32 %154 to float
  %156 = load ptr, ptr %8, align 8, !tbaa !116
  %157 = load i32, ptr %11, align 4, !tbaa !9
  %158 = load i32, ptr %13, align 4, !tbaa !9
  %159 = call noundef nonnull align 4 dereferenceable(4) ptr @_ZN2cv3Mat2atIfEERT_ii(ptr noundef nonnull align 8 dereferenceable(96) %156, i32 noundef %157, i32 noundef %158)
  store float %155, ptr %159, align 4, !tbaa !107
  br label %160

160:                                              ; preds = %30, %139, %122, %105, %104
  %161 = load i8, ptr %10, align 1, !tbaa !16, !range !224, !noundef !225
  %162 = trunc i8 %161 to i1
  br i1 %162, label %163, label %180

163:                                              ; preds = %160
  %164 = load i32, ptr %13, align 4, !tbaa !9
  %165 = sitofp i32 %164 to float
  %166 = load ptr, ptr %7, align 8, !tbaa !116
  %167 = load i32, ptr %11, align 4, !tbaa !9
  %168 = load i32, ptr %13, align 4, !tbaa !9
  %169 = call noundef nonnull align 4 dereferenceable(4) ptr @_ZN2cv3Mat2atIfEERT_ii(ptr noundef nonnull align 8 dereferenceable(96) %166, i32 noundef %167, i32 noundef %168)
  %170 = load float, ptr %169, align 4, !tbaa !107
  %171 = fsub float %170, %165
  store float %171, ptr %169, align 4, !tbaa !107
  %172 = load i32, ptr %11, align 4, !tbaa !9
  %173 = sitofp i32 %172 to float
  %174 = load ptr, ptr %8, align 8, !tbaa !116
  %175 = load i32, ptr %11, align 4, !tbaa !9
  %176 = load i32, ptr %13, align 4, !tbaa !9
  %177 = call noundef nonnull align 4 dereferenceable(4) ptr @_ZN2cv3Mat2atIfEERT_ii(ptr noundef nonnull align 8 dereferenceable(96) %174, i32 noundef %175, i32 noundef %176)
  %178 = load float, ptr %177, align 4, !tbaa !107
  %179 = fsub float %178, %173
  store float %179, ptr %177, align 4, !tbaa !107
  br label %180

180:                                              ; preds = %163, %160
  br label %181

181:                                              ; preds = %180
  %182 = load i32, ptr %13, align 4, !tbaa !9
  %183 = add nsw i32 %182, 1
  store i32 %183, ptr %13, align 4, !tbaa !9
  br label %23, !llvm.loop !226

184:                                              ; preds = %29
  br label %185

185:                                              ; preds = %184
  %186 = load i32, ptr %11, align 4, !tbaa !9
  %187 = add nsw i32 %186, 1
  store i32 %187, ptr %11, align 4, !tbaa !9
  br label %15, !llvm.loop !227

188:                                              ; preds = %21
  ret void
}