; Function Attrs: mustprogress nofree norecurse nosync nounwind memory(readwrite, inaccessiblemem: none) uwtable
define hidden void @_ZN11opencv_test10update_mapERKN2cv3MatERS1_S4_ib(ptr noundef nonnull readonly align 8 captures(none) dereferenceable(96) %0, ptr noundef nonnull readonly align 8 captures(none) dereferenceable(96) %1, ptr noundef nonnull readonly align 8 captures(none) dereferenceable(96) %2, i32 noundef %3, i1 noundef zeroext %4) local_unnamed_addr #13 {
  %6 = getelementptr inbounds nuw i8, ptr %0, i64 8
  %7 = load i32, ptr %6, align 8, !tbaa !133
  %8 = icmp sgt i32 %7, 0
  br i1 %8, label %.preheader.lr.ph, label %._crit_edge76

.preheader.lr.ph:                                 ; preds = %5
  %9 = getelementptr inbounds nuw i8, ptr %0, i64 12
  %10 = load i32, ptr %9, align 4, !tbaa !126
  %11 = icmp sgt i32 %10, 0
  %12 = getelementptr inbounds nuw i8, ptr %1, i64 16
  %13 = getelementptr inbounds nuw i8, ptr %1, i64 72
  %14 = getelementptr inbounds nuw i8, ptr %2, i64 16
  %15 = getelementptr inbounds nuw i8, ptr %2, i64 72
  %16 = sitofp i32 %10 to double
  %17 = fmul double %16, 2.500000e-01
  %18 = fmul double %16, 7.500000e-01
  %19 = uitofp nneg i32 %7 to double
  %20 = fmul double %19, 2.500000e-01
  %21 = fmul double %19, 7.500000e-01
  %22 = sitofp i32 %10 to float
  %23 = fneg float %22
  %24 = uitofp nneg i32 %7 to float
  %25 = fneg float %24
  br i1 %11, label %.preheader.us.preheader, label %._crit_edge76

.preheader.us.preheader:                          ; preds = %.preheader.lr.ph
  %wide.trip.count86 = zext nneg i32 %7 to i64
  %wide.trip.count = zext nneg i32 %10 to i64
  br label %.preheader.us

.preheader.us:                                    ; preds = %.preheader.us.preheader, %._crit_edge.us
  %indvars.iv83 = phi i64 [ 0, %.preheader.us.preheader ], [ %indvars.iv.next84, %._crit_edge.us ]
  %26 = load ptr, ptr %12, align 8
  %27 = load ptr, ptr %13, align 8
  %28 = trunc i64 %indvars.iv83 to i32
  %29 = sub i32 %7, %28
  %30 = sitofp i32 %29 to float
  %31 = load ptr, ptr %14, align 8
  %32 = load ptr, ptr %15, align 8
  %33 = trunc nuw nsw i64 %indvars.iv83 to i32
  %34 = uitofp nneg i32 %33 to float
  %35 = uitofp nneg i32 %33 to double
  %36 = fcmp uge double %20, %35
  %37 = fcmp ule double %21, %35
  %or.cond73.us.not80 = or i1 %36, %37
  %38 = tail call float @llvm.fmuladd.f32(float %25, float 2.500000e-01, float %34)
  %39 = tail call float @llvm.fmuladd.f32(float %38, float 2.000000e+00, float 5.000000e-01)
  br label %40

40:                                               ; preds = %.preheader.us, %85
  %indvars.iv = phi i64 [ 0, %.preheader.us ], [ %indvars.iv.next, %85 ]
  switch i32 %3, label %69 [
    i32 0, label %52
    i32 1, label %49
    i32 2, label %45
    i32 3, label %41
  ]

41:                                               ; preds = %40
  %42 = trunc i64 %indvars.iv to i32
  %43 = sub i32 %10, %42
  %44 = sitofp i32 %43 to float
  br label %.sink.split

45:                                               ; preds = %40
  %46 = trunc i64 %indvars.iv to i32
  %47 = sub i32 %10, %46
  %48 = sitofp i32 %47 to float
  br label %.sink.split

49:                                               ; preds = %40
  %50 = trunc nuw nsw i64 %indvars.iv to i32
  %51 = uitofp nneg i32 %50 to float
  br label %.sink.split

52:                                               ; preds = %40
  %53 = trunc nuw nsw i64 %indvars.iv to i32
  %54 = uitofp nneg i32 %53 to double
  %55 = fcmp uge double %17, %54
  %56 = fcmp ule double %18, %54
  %or.cond.us.not78 = or i1 %55, %56
  %brmerge = select i1 %or.cond.us.not78, i1 true, i1 %or.cond73.us.not80
  br i1 %brmerge, label %.sink.split, label %57

57:                                               ; preds = %52
  %58 = uitofp nneg i32 %53 to float
  %59 = tail call float @llvm.fmuladd.f32(float %23, float 2.500000e-01, float %58)
  %60 = tail call float @llvm.fmuladd.f32(float %59, float 2.000000e+00, float 5.000000e-01)
  br label %.sink.split

.sink.split:                                      ; preds = %52, %41, %45, %49, %57
  %.sink92 = phi float [ %60, %57 ], [ %51, %49 ], [ %48, %45 ], [ %44, %41 ], [ 0.000000e+00, %52 ]
  %.sink = phi float [ %39, %57 ], [ %30, %49 ], [ %34, %45 ], [ %30, %41 ], [ 0.000000e+00, %52 ]
  %61 = load i64, ptr %27, align 8, !tbaa !10
  %62 = mul i64 %61, %indvars.iv83
  %63 = getelementptr inbounds nuw i8, ptr %26, i64 %62
  %64 = getelementptr inbounds nuw float, ptr %63, i64 %indvars.iv
  store float %.sink92, ptr %64, align 4, !tbaa !578
  %65 = load i64, ptr %32, align 8, !tbaa !10
  %66 = mul i64 %65, %indvars.iv83
  %67 = getelementptr inbounds nuw i8, ptr %31, i64 %66
  %68 = getelementptr inbounds nuw float, ptr %67, i64 %indvars.iv
  store float %.sink, ptr %68, align 4, !tbaa !578
  br label %69

69:                                               ; preds = %.sink.split, %40
  br i1 %4, label %70, label %85

70:                                               ; preds = %69
  %71 = trunc nuw nsw i64 %indvars.iv to i32
  %72 = uitofp nneg i32 %71 to float
  %73 = load i64, ptr %27, align 8, !tbaa !10
  %74 = mul i64 %73, %indvars.iv83
  %75 = getelementptr inbounds nuw i8, ptr %26, i64 %74
  %76 = getelementptr inbounds nuw float, ptr %75, i64 %indvars.iv
  %77 = load float, ptr %76, align 4, !tbaa !578
  %78 = fsub float %77, %72
  store float %78, ptr %76, align 4, !tbaa !578
  %79 = load i64, ptr %32, align 8, !tbaa !10
  %80 = mul i64 %79, %indvars.iv83
  %81 = getelementptr inbounds nuw i8, ptr %31, i64 %80
  %82 = getelementptr inbounds nuw float, ptr %81, i64 %indvars.iv
  %83 = load float, ptr %82, align 4, !tbaa !578
  %84 = fsub float %83, %34
  store float %84, ptr %82, align 4, !tbaa !578
  br label %85

85:                                               ; preds = %70, %69
  %indvars.iv.next = add nuw nsw i64 %indvars.iv, 1
  %exitcond.not = icmp eq i64 %indvars.iv.next, %wide.trip.count
  br i1 %exitcond.not, label %._crit_edge.us, label %40, !llvm.loop !580

._crit_edge.us:                                   ; preds = %85
  %indvars.iv.next84 = add nuw nsw i64 %indvars.iv83, 1
  %exitcond87.not = icmp eq i64 %indvars.iv.next84, %wide.trip.count86
  br i1 %exitcond87.not, label %._crit_edge76, label %.preheader.us, !llvm.loop !581

._crit_edge76:                                    ; preds = %._crit_edge.us, %.preheader.lr.ph, %5
  ret void
}